; Function Attrs: mustprogress uwtable
define void @_ZN5osgeo4proj6common7MeasureC2EdRKNS1_13UnitOfMeasureE(ptr noundef nonnull align 8 dereferenceable(24) %0, double noundef %1, ptr noundef nonnull align 8 dereferenceable(24) %2) unnamed_addr #0 align 2 personality ptr @__gxx_personality_v0 {
  tail call void @_ZN5osgeo4proj4util10BaseObjectC2Ev(ptr noundef nonnull align 8 dereferenceable(16) %0)
  store ptr getelementptr inbounds nuw inrange(-16, 16) (i8, ptr @_ZTVN5osgeo4proj6common7MeasureE, i64 16), ptr %0, align 8, !tbaa !3
  tail call void @llvm.experimental.noalias.scope.decl(metadata !55)
  %4 = invoke noalias noundef nonnull dereferenceable(32) ptr @_Znwm(i64 noundef 32) #38
          to label %.noexc unwind label %10

.noexc:                                           ; preds = %3
  store double %1, ptr %4, align 8, !tbaa !58, !noalias !55
  %5 = getelementptr inbounds nuw i8, ptr %4, i64 8
  invoke void @_ZN5osgeo4proj6common13UnitOfMeasureC1ERKS2_(ptr noundef nonnull align 8 dereferenceable(24) %5, ptr noundef nonnull align 8 dereferenceable(24) %2)
          to label %8 unwind label %6, !noalias !55

6:                                                ; preds = %.noexc
  %7 = landingpad { ptr, i32 }
          cleanup
  tail call void @_ZdlPvm(ptr noundef nonnull %4, i64 noundef 32) #39, !noalias !55
  br label %.body

8:                                                ; preds = %.noexc
  %9 = getelementptr inbounds nuw i8, ptr %0, i64 16
  store ptr %4, ptr %9, align 8, !tbaa !75, !alias.scope !55
  ret void

10:                                               ; preds = %3
  %11 = landingpad { ptr, i32 }
          cleanup
  br label %.body

.body:                                            ; preds = %6, %10
  %eh.lpad-body = phi { ptr, i32 } [ %11, %10 ], [ %7, %6 ]
  tail call void @_ZN5osgeo4proj4util10BaseObjectD2Ev(ptr noundef nonnull align 8 dereferenceable(16) %0) #40
  resume { ptr, i32 } %eh.lpad-body
}